target datalayout = "e-m:e-p270:32:32-p271:32:32-p272:64:64-i64:64-i128:128-f80:128-n8:16:32:64-S128"
target triple = "x86_64-pc-linux-gnu"

%struct.bitstream = type { i64, i64, ptr, ptr, ptr }

; Function Attrs: nounwind uwtable
define internal void @stream_write_word(ptr noundef %0, i64 noundef %1) #0 {
  %3 = alloca ptr, align 8
  %4 = alloca i64, align 8
  store ptr %0, ptr %3, align 8
  store i64 %1, ptr %4, align 8
  %5 = load i64, ptr %4, align 8
  %6 = load ptr, ptr %3, align 8
  %7 = getelementptr inbounds %struct.bitstream, ptr %6, i32 0, i32 2
  %8 = load ptr, ptr %7, align 8
  %9 = getelementptr inbounds i64, ptr %8, i32 1
  store ptr %9, ptr %7, align 8
  store i64 %5, ptr %8, align 8
  ret void
}

; Function Attrs: nounwind uwtable
define i32 @stream_write_bit(ptr noundef %0, i32 noundef %1) #0 {
  %3 = alloca ptr, align 8
  %4 = alloca i32, align 4
  store ptr %0, ptr %3, align 8
  store i32 %1, ptr %4, align 4
  %5 = load i32, ptr %4, align 4
  %6 = zext i32 %5 to i64
  %7 = load ptr, ptr %3, align 8
  %8 = getelementptr inbounds %struct.bitstream, ptr %7, i32 0, i32 0
  %9 = load i64, ptr %8, align 8
  %10 = shl i64 %6, %9
  %11 = load ptr, ptr %3, align 8
  %12 = getelementptr inbounds %struct.bitstream, ptr %11, i32 0, i32 1
  %13 = load i64, ptr %12, align 8
  %14 = add i64 %13, %10
  store i64 %14, ptr %12, align 8
  %15 = load ptr, ptr %3, align 8
  %16 = getelementptr inbounds %struct.bitstream, ptr %15, i32 0, i32 0
  %17 = load i64, ptr %16, align 8
  %18 = add i64 %17, 1
  store i64 %18, ptr %16, align 8
  %19 = icmp eq i64 %18, 64
  br i1 %19, label %20, label %29

20:                                               ; preds = %2
  %21 = load ptr, ptr %3, align 8
  %22 = load ptr, ptr %3, align 8
  %23 = getelementptr inbounds %struct.bitstream, ptr %22, i32 0, i32 1
  %24 = load i64, ptr %23, align 8
  call void @stream_write_word(ptr noundef %21, i64 noundef %24)
  %25 = load ptr, ptr %3, align 8
  %26 = getelementptr inbounds %struct.bitstream, ptr %25, i32 0, i32 1
  store i64 0, ptr %26, align 8
  %27 = load ptr, ptr %3, align 8
  %28 = getelementptr inbounds %struct.bitstream, ptr %27, i32 0, i32 0
  store i64 0, ptr %28, align 8
  br label %29

29:                                               ; preds = %20, %2
  %30 = load i32, ptr %4, align 4
  ret i32 %30
}