; Function Attrs: mustprogress nofree norecurse nosync nounwind willreturn memory(write, argmem: readwrite, inaccessiblemem: none) uwtable
define noundef i32 @stream_write_bit(ptr noundef captures(none) %0, i32 noundef returned %1) local_unnamed_addr #3 {
  %3 = zext i32 %1 to i64
  %4 = load i64, ptr %0, align 8
  %5 = shl i64 %3, %4
  %6 = getelementptr inbounds nuw i8, ptr %0, i64 8
  %7 = load i64, ptr %6, align 8
  %8 = add i64 %7, %5
  store i64 %8, ptr %6, align 8
  %9 = add i64 %4, 1
  store i64 %9, ptr %0, align 8
  %10 = icmp eq i64 %9, 64
  br i1 %10, label %11, label %15

11:                                               ; preds = %2
  %12 = getelementptr inbounds nuw i8, ptr %0, i64 16
  %13 = load ptr, ptr %12, align 8
  %14 = getelementptr inbounds nuw i8, ptr %13, i64 8
  store ptr %14, ptr %12, align 8
  store i64 %8, ptr %13, align 8
  tail call void @llvm.memset.p0.i64(ptr noundef nonnull align 8 dereferenceable(16) %0, i8 0, i64 16, i1 false)
  br label %15

15:                                               ; preds = %11, %2
  ret i32 %1
}